; Function Attrs: nounwind uwtable
define internal void @_set_polygen_attr(ptr noundef %0, ptr noundef %1, ptr nocapture noundef readonly %2) #0 {
  tail call void @_set_polyline_attr(ptr noundef %0, ptr noundef %1, ptr noundef %2)
  %4 = load i8, ptr %2, align 8, !tbaa !163
  %5 = icmp eq i8 %4, 24
  br i1 %5, label %6, label %9

6:                                                ; preds = %3
  %7 = getelementptr inbounds nuw i8, ptr %0, i64 576
  %8 = load ptr, ptr %7, align 8, !tbaa !186
  tail call void @lv_vector_path_close(ptr noundef %8) #9
  br label %9

9:                                                ; preds = %6, %3
  ret void
}